; ModuleID = 'source-C-CXX/23/350.c'
source_filename = "source-C-CXX/23/350.c"
target datalayout = "e-m:e-p270:32:32-p271:32:32-p272:64:64-i64:64-f80:128-n8:16:32:64-S128"
target triple = "x86_64-pc-linux-gnu"

@.str = private unnamed_addr constant [3 x i8] c"%s\00", align 1

; Function Attrs: nounwind sspstrong uwtable
define dso_local i32 @main() local_unnamed_addr #0 {
  %1 = alloca [100 x i8], align 16
  %2 = alloca [100 x [100 x i8]], align 16
  %3 = alloca [30 x i8], align 16
  %4 = alloca [30 x i8], align 16
  %5 = getelementptr inbounds [100 x i8], [100 x i8]* %1, i64 0, i64 0
  call void @llvm.lifetime.start.p0i8(i64 100, i8* nonnull %5) #8
  %6 = getelementptr inbounds [100 x [100 x i8]], [100 x [100 x i8]]* %2, i64 0, i64 0, i64 0
  call void @llvm.lifetime.start.p0i8(i64 10000, i8* nonnull %6) #8
  call void @llvm.memset.p0i8.i64(i8* noundef nonnull align 16 dereferenceable(10000) %6, i8 0, i64 10000, i1 false)
  %7 = getelementptr inbounds [30 x i8], [30 x i8]* %3, i64 0, i64 0
  call void @llvm.lifetime.start.p0i8(i64 30, i8* nonnull %7) #8
  %8 = getelementptr inbounds [30 x i8], [30 x i8]* %4, i64 0, i64 0
  call void @llvm.lifetime.start.p0i8(i64 30, i8* nonnull %8) #8
  %9 = call i32 (i8*, ...) bitcast (i32 (...)* @gets to i32 (i8*, ...)*)(i8* nonnull %5) #8
  br label %10

10:                                               ; preds = %21, %0
  %11 = phi i64 [ %27, %21 ], [ 0, %0 ]
  %12 = phi i32 [ %25, %21 ], [ 0, %0 ]
  %13 = phi i32 [ %26, %21 ], [ 0, %0 ]
  %14 = getelementptr inbounds [100 x i8], [100 x i8]* %1, i64 0, i64 %11
  %15 = load i8, i8* %14, align 1, !tbaa !5
  switch i8 %15, label %16 [
    i8 0, label %28
    i8 32, label %21
  ]

16:                                               ; preds = %10
  %17 = zext i32 %12 to i64
  %18 = sext i32 %13 to i64
  %19 = getelementptr inbounds [100 x [100 x i8]], [100 x [100 x i8]]* %2, i64 0, i64 %17, i64 %18
  store i8 %15, i8* %19, align 1, !tbaa !5
  %20 = add nsw i32 %13, 1
  br label %21

21:                                               ; preds = %10, %16
  %22 = phi i32 [ %20, %16 ], [ %13, %10 ]
  %23 = icmp eq i8 %15, 32
  %24 = zext i1 %23 to i32
  %25 = add nuw nsw i32 %12, %24
  %26 = select i1 %23, i32 0, i32 %22
  %27 = add nuw i64 %11, 1
  br label %10, !llvm.loop !8

28:                                               ; preds = %10
  %29 = call i8* @strcpy(i8* noundef nonnull %7, i8* noundef nonnull %6) #8
  %30 = call i8* @strcpy(i8* noundef nonnull %8, i8* noundef nonnull %6) #8
  %31 = add nuw i32 %12, 1
  %32 = zext i32 %31 to i64
  br label %33

33:                                               ; preds = %28, %46
  %34 = phi i64 [ 0, %28 ], [ %47, %46 ]
  %35 = getelementptr inbounds [100 x [100 x i8]], [100 x [100 x i8]]* %2, i64 0, i64 %34, i64 0
  %36 = call i64 @strlen(i8* noundef nonnull %35) #9
  %37 = call i64 @strlen(i8* noundef nonnull %7) #9
  %38 = icmp ugt i64 %36, %37
  br i1 %38, label %39, label %41

39:                                               ; preds = %33
  %40 = call i8* @strcpy(i8* noundef nonnull %7, i8* noundef nonnull %35) #8
  br label %41

41:                                               ; preds = %39, %33
  %42 = call i64 @strlen(i8* noundef nonnull %8) #9
  %43 = icmp ult i64 %36, %42
  br i1 %43, label %44, label %46

44:                                               ; preds = %41
  %45 = call i8* @strcpy(i8* noundef nonnull %8, i8* noundef nonnull %35) #8
  br label %46

46:                                               ; preds = %41, %44
  %47 = add nuw nsw i64 %34, 1
  %48 = icmp eq i64 %47, %32
  br i1 %48, label %49, label %33, !llvm.loop !10

49:                                               ; preds = %46
  %50 = call i32 (i8*, ...) @printf(i8* nonnull dereferenceable(1) getelementptr inbounds ([3 x i8], [3 x i8]* @.str, i64 0, i64 0), i8* nonnull %7)
  %51 = call i32 @putchar(i32 10)
  %52 = call i32 (i8*, ...) @printf(i8* nonnull dereferenceable(1) getelementptr inbounds ([3 x i8], [3 x i8]* @.str, i64 0, i64 0), i8* nonnull %8)
  %53 = call i32 @putchar(i32 10)
  call void @llvm.lifetime.end.p0i8(i64 30, i8* nonnull %8) #8
  call void @llvm.lifetime.end.p0i8(i64 30, i8* nonnull %7) #8
  call void @llvm.lifetime.end.p0i8(i64 10000, i8* nonnull %6) #8
  call void @llvm.lifetime.end.p0i8(i64 100, i8* nonnull %5) #8
  ret i32 0
}

; Function Attrs: argmemonly mustprogress nofree nosync nounwind willreturn
declare void @llvm.lifetime.start.p0i8(i64 immarg, i8* nocapture) #1

; Function Attrs: argmemonly mustprogress nofree nounwind willreturn writeonly
declare void @llvm.memset.p0i8.i64(i8* nocapture writeonly, i8, i64, i1 immarg) #2

declare i32 @gets(...) local_unnamed_addr #3

; Function Attrs: argmemonly mustprogress nofree nounwind willreturn
declare i8* @strcpy(i8* noalias returned writeonly, i8* noalias nocapture readonly) local_unnamed_addr #4

; Function Attrs: argmemonly mustprogress nofree nounwind readonly willreturn
declare i64 @strlen(i8* nocapture) local_unnamed_addr #5

; Function Attrs: nofree nounwind
declare noundef i32 @printf(i8* nocapture noundef readonly, ...) local_unnamed_addr #6

; Function Attrs: argmemonly mustprogress nofree nosync nounwind willreturn
declare void @llvm.lifetime.end.p0i8(i64 immarg, i8* nocapture) #1

; Function Attrs: nofree nounwind
declare noundef i32 @putchar(i32 noundef) local_unnamed_addr #7


!llvm.module.flags = !{!0, !1, !2, !3}
!llvm.ident = !{!4}

!0 = !{i32 1, !"wchar_size", i32 4}
!1 = !{i32 7, !"PIC Level", i32 2}
!2 = !{i32 7, !"PIE Level", i32 2}
!3 = !{i32 7, !"uwtable", i32 1}
!4 = !{!"clang version 13.0.0"}
!5 = !{!6, !6, i64 0}
!6 = !{!"omnipotent char", !7, i64 0}
!7 = !{!"Simple C/C++ TBAA"}
!8 = distinct !{!8, !9}
!9 = !{!"llvm.loop.mustprogress"}
!10 = distinct !{!10, !9}
